target datalayout = "e-m:e-p270:32:32-p271:32:32-p272:64:64-i64:64-i128:128-f80:128-n8:16:32:64-S128"
target triple = "x86_64-unknown-linux-gnu"

%struct.grpc_closure = type { %union.anon, ptr, ptr, %union.anon.9 }
%union.anon = type { ptr }
%union.anon.9 = type { i64 }
%"class.absl::lts_20230802::Status" = type { i64 }
%"class.grpc_core::promise_filter_detail::BaseCallData::CapturedBatch" = type { ptr }
%"class.grpc_core::promise_filter_detail::BaseCallData::SendMessage" = type { ptr, i8, ptr, %"class.std::optional", %"class.std::optional.37", %"class.grpc_core::promise_filter_detail::BaseCallData::CapturedBatch", ptr, %struct.grpc_closure, %"class.absl::lts_20230802::Status" }
%"class.std::optional" = type { %"struct.std::_Optional_base" }
%"struct.std::_Optional_base" = type { %"struct.std::_Optional_payload" }
%"struct.std::_Optional_payload" = type { %"struct.std::_Optional_payload.base", [7 x i8] }
%"struct.std::_Optional_payload.base" = type { %"struct.std::_Optional_payload_base.base" }
%"struct.std::_Optional_payload_base.base" = type <{ %"union.std::_Optional_payload_base<grpc_core::pipe_detail::Push<std::unique_ptr<grpc_core::Message, grpc_core::Arena::PooledDeleter>>>::_Storage", i8 }>
%"union.std::_Optional_payload_base<grpc_core::pipe_detail::Push<std::unique_ptr<grpc_core::Message, grpc_core::Arena::PooledDeleter>>>::_Storage" = type { %"class.grpc_core::pipe_detail::Push" }
%"class.grpc_core::pipe_detail::Push" = type { %"class.grpc_core::RefCountedPtr", %"class.std::variant" }
%"class.grpc_core::RefCountedPtr" = type { ptr }
%"class.std::variant" = type { %"struct.std::__detail::__variant::_Variant_base.base", [7 x i8] }
%"struct.std::__detail::__variant::_Variant_base.base" = type { %"struct.std::__detail::__variant::_Move_assign_base.base" }
%"struct.std::__detail::__variant::_Move_assign_base.base" = type { %"struct.std::__detail::__variant::_Copy_assign_base.base" }
%"struct.std::__detail::__variant::_Copy_assign_base.base" = type { %"struct.std::__detail::__variant::_Move_ctor_base.base" }
%"struct.std::__detail::__variant::_Move_ctor_base.base" = type { %"struct.std::__detail::__variant::_Copy_ctor_base.base" }
%"struct.std::__detail::__variant::_Copy_ctor_base.base" = type { %"struct.std::__detail::__variant::_Variant_storage.base" }
%"struct.std::__detail::__variant::_Variant_storage.base" = type { %"union.std::__detail::__variant::_Variadic_union", i8 }
%"union.std::__detail::__variant::_Variadic_union" = type { %"struct.std::__detail::__variant::_Uninitialized" }
%"struct.std::__detail::__variant::_Uninitialized" = type { %"struct.__gnu_cxx::__aligned_membuf" }
%"struct.__gnu_cxx::__aligned_membuf" = type { [16 x i8] }
%"class.std::optional.37" = type { %"struct.std::_Optional_base.38" }
%"struct.std::_Optional_base.38" = type { %"struct.std::_Optional_payload.40" }
%"struct.std::_Optional_payload.40" = type { %"struct.std::_Optional_payload.base.74", [7 x i8] }
%"struct.std::_Optional_payload.base.74" = type { %"struct.std::_Optional_payload_base.base.73" }
%"struct.std::_Optional_payload_base.base.73" = type { %"union.std::_Optional_payload_base<grpc_core::promise_detail::Seq<grpc_core::pipe_detail::Next<std::unique_ptr<grpc_core::Message, grpc_core::Arena::PooledDeleter>>, (lambda at /home/dtcxzyw/WorkSpace/Projects/compilers/llvm-opt-benchmark/bench/grpc/grpc/src/core/lib/promise/pipe.h:575:47)>>::_Storage", i8 }
%"union.std::_Optional_payload_base<grpc_core::promise_detail::Seq<grpc_core::pipe_detail::Next<std::unique_ptr<grpc_core::Message, grpc_core::Arena::PooledDeleter>>, (lambda at /home/dtcxzyw/WorkSpace/Projects/compilers/llvm-opt-benchmark/bench/grpc/grpc/src/core/lib/promise/pipe.h:575:47)>>::_Storage" = type { %"class.grpc_core::promise_detail::Seq" }
%"class.grpc_core::promise_detail::Seq" = type { %"struct.grpc_core::promise_detail::SeqState" }
%"struct.grpc_core::promise_detail::SeqState" = type <{ %union.anon.43, i8, [7 x i8] }>
%union.anon.43 = type { %"class.grpc_core::promise_detail::PromiseLike.45" }
%"class.grpc_core::promise_detail::PromiseLike.45" = type { %"class.grpc_core::promise_detail::If" }
%"class.grpc_core::promise_detail::If" = type { i8, %union.anon.46 }
%union.anon.46 = type { %"class.grpc_core::promise_detail::PromiseLike.47" }
%"class.grpc_core::promise_detail::PromiseLike.47" = type { %"class.grpc_core::promise_detail::Map" }
%"class.grpc_core::promise_detail::Map" = type { %"class.grpc_core::promise_detail::PromiseLike.48", %class.anon.70 }
%"class.grpc_core::promise_detail::PromiseLike.48" = type { %"class.grpc_core::InterceptorList<std::unique_ptr<grpc_core::Message, grpc_core::Arena::PooledDeleter>>::RunPromise.base", [7 x i8] }
%"class.grpc_core::InterceptorList<std::unique_ptr<grpc_core::Message, grpc_core::Arena::PooledDeleter>>::RunPromise.base" = type <{ %union.anon.49, i8 }>
%union.anon.49 = type { %"struct.grpc_core::InterceptorList<std::unique_ptr<grpc_core::Message, grpc_core::Arena::PooledDeleter>>::RunPromise::AsyncResolution" }
%"struct.grpc_core::InterceptorList<std::unique_ptr<grpc_core::Message, grpc_core::Arena::PooledDeleter>>::RunPromise::AsyncResolution" = type { ptr, %"class.std::unique_ptr" }
%"class.std::unique_ptr" = type { %"struct.std::__uniq_ptr_data" }
%"struct.std::__uniq_ptr_data" = type { %"class.std::__uniq_ptr_impl" }
%"class.std::__uniq_ptr_impl" = type { %"class.std::tuple" }
%"class.std::tuple" = type { %"struct.std::_Tuple_impl" }
%"struct.std::_Tuple_impl" = type { %"struct.std::_Tuple_impl.50", %"struct.std::_Head_base.51" }
%"struct.std::_Tuple_impl.50" = type { %"struct.std::_Head_base" }
%"struct.std::_Head_base" = type { %"class.grpc_core::Arena::ArrayPooledDeleter" }
%"class.grpc_core::Arena::ArrayPooledDeleter" = type { i8 }
%"struct.std::_Head_base.51" = type { ptr }
%class.anon.70 = type { %"class.grpc_core::RefCountedPtr" }

@.str.5 = private unnamed_addr constant [132 x i8] c"generated/home/dtcxzyw/WorkSpace/Projects/compilers/llvm-opt-benchmark/bench/grpc/grpc/src/core/lib/channel/promise_based_filter.cc\00", align 1
@.str.27 = private unnamed_addr constant [13 x i8] c"return false\00", align 1

; Function Attrs: mustprogress uwtable
define noundef zeroext i1 @_ZNK9grpc_core21promise_filter_detail12BaseCallData11SendMessage6IsIdleEv(ptr noundef nonnull align 8 dereferenceable(184) %this) #4 align 2 {
entry:
  %retval = alloca i1, align 1
  %this.addr = alloca ptr, align 8
  store ptr %this, ptr %this.addr, align 8
  %this1 = load ptr, ptr %this.addr, align 8
  %state_ = getelementptr inbounds %"class.grpc_core::promise_filter_detail::BaseCallData::SendMessage", ptr %this1, i32 0, i32 1
  %0 = load i8, ptr %state_, align 8
  switch i8 %0, label %sw.epilog [
    i8 0, label %sw.bb
    i8 1, label %sw.bb
    i8 5, label %sw.bb
    i8 8, label %sw.bb
    i8 7, label %sw.bb
    i8 9, label %sw.bb
    i8 2, label %sw.bb2
    i8 3, label %sw.bb2
    i8 6, label %sw.bb2
    i8 4, label %sw.bb2
  ]

sw.bb:                                            ; preds = %entry, %entry, %entry, %entry, %entry, %entry
  store i1 true, ptr %retval, align 1
  br label %return

sw.bb2:                                           ; preds = %entry, %entry, %entry, %entry
  store i1 false, ptr %retval, align 1
  br label %return

sw.epilog:                                        ; preds = %entry
  br label %do.body

do.body:                                          ; preds = %sw.epilog
  call void @gpr_unreachable_code(ptr noundef @.str.27, ptr noundef @.str.5, i32 noundef 412) #17
  unreachable

do.end:                                           ; No predecessors!
  call void @llvm.trap()
  unreachable

return:                                           ; preds = %sw.bb2, %sw.bb
  %1 = load i1, ptr %retval, align 1
  ret i1 %1
}