; Function Attrs: mustprogress uwtable
define noundef zeroext i1 @_ZNK9grpc_core21promise_filter_detail12BaseCallData11SendMessage6IsIdleEv(ptr nocapture noundef nonnull readonly align 8 dereferenceable(184) %this) local_unnamed_addr #3 align 2 {
entry:
  %state_ = getelementptr inbounds i8, ptr %this, i64 8
  %0 = load i8, ptr %state_, align 8
  %1 = icmp ult i8 %0, 10
  br i1 %1, label %switch.lookup, label %do.body

do.body:                                          ; preds = %entry
  tail call void @gpr_unreachable_code(ptr noundef nonnull @.str.27, ptr noundef nonnull @.str.5, i32 noundef 412) #33
  unreachable

switch.lookup:                                    ; preds = %entry
  %switch.cast = zext nneg i8 %0 to i10
  %switch.downshift = lshr i10 -93, %switch.cast
  %2 = and i10 %switch.downshift, 1
  %switch.masked = icmp ne i10 %2, 0
  ret i1 %switch.masked
}